; Function Attrs: mustprogress uwtable
define void @_ZNK15FilterIcpPlugin16pythonFilterNameEi(ptr dead_on_unwind noalias nocapture writable writeonly sret(%class.QString) align 8 %0, ptr nocapture noundef nonnull readnone align 8 dereferenceable(204) %1, i32 noundef %2) unnamed_addr #9 align 2 {
  switch i32 %2, label %10 [
    i32 0, label %4
    i32 1, label %6
    i32 2, label %8
  ]

4:                                                ; preds = %3
  %5 = tail call noundef ptr @_ZN7QString16fromAscii_helperEPKci(ptr noundef nonnull @.str.13, i32 noundef 36)
  br label %12

6:                                                ; preds = %3
  %7 = tail call noundef ptr @_ZN7QString16fromAscii_helperEPKci(ptr noundef nonnull @.str.14, i32 noundef 39)
  br label %12

8:                                                ; preds = %3
  %9 = tail call noundef ptr @_ZN7QString16fromAscii_helperEPKci(ptr noundef nonnull @.str.15, i32 noundef 28)
  br label %12

10:                                               ; preds = %3
  %11 = tail call noundef ptr @_ZN7QString16fromAscii_helperEPKci(ptr noundef nonnull @.str.12, i32 noundef 0)
  br label %12

12:                                               ; preds = %10, %8, %6, %4
  %.sink = phi ptr [ %11, %10 ], [ %9, %8 ], [ %7, %6 ], [ %5, %4 ]
  store ptr %.sink, ptr %0, align 8
  ret void
}